target datalayout = "e-m:e-p270:32:32-p271:32:32-p272:64:64-i64:64-i128:128-f80:128-n8:16:32:64-S128"
target triple = "x86_64-pc-linux-gnu"

@_ZN4absl13time_internal4cctz12_GLOBAL__N_17kDigitsE = internal constant [11 x i8] c"0123456789\00", align 1

; Function Attrs: mustprogress nounwind uwtable
define internal noundef i32 @_ZN4absl13time_internal4cctz12_GLOBAL__N_18Parse02dEPKc(ptr noundef %0) #3 {
  %2 = alloca i32, align 4
  %3 = alloca ptr, align 8
  %4 = alloca ptr, align 8
  %5 = alloca i32, align 4
  %6 = alloca ptr, align 8
  %7 = alloca i32, align 4
  store ptr %0, ptr %3, align 8, !tbaa !14
  call void @llvm.lifetime.start.p0(i64 8, ptr %4) #13
  %8 = load ptr, ptr %3, align 8, !tbaa !14
  %9 = load i8, ptr %8, align 1, !tbaa !16
  %10 = sext i8 %9 to i32
  %11 = call noundef ptr @strchr(ptr noundef @_ZN4absl13time_internal4cctz12_GLOBAL__N_17kDigitsE, i32 noundef %10) #15
  store ptr %11, ptr %4, align 8, !tbaa !14
  %12 = load ptr, ptr %4, align 8, !tbaa !14
  %13 = icmp ne ptr %12, null
  br i1 %13, label %14, label %41

14:                                               ; preds = %1
  call void @llvm.lifetime.start.p0(i64 4, ptr %5) #13
  %15 = load ptr, ptr %4, align 8, !tbaa !14
  %16 = ptrtoint ptr %15 to i64
  %17 = sub i64 %16, ptrtoint (ptr @_ZN4absl13time_internal4cctz12_GLOBAL__N_17kDigitsE to i64)
  %18 = trunc i64 %17 to i32
  store i32 %18, ptr %5, align 4, !tbaa !17
  call void @llvm.lifetime.start.p0(i64 8, ptr %6) #13
  %19 = load ptr, ptr %3, align 8, !tbaa !14
  %20 = getelementptr inbounds nuw i8, ptr %19, i32 1
  store ptr %20, ptr %3, align 8, !tbaa !14
  %21 = load i8, ptr %20, align 1, !tbaa !16
  %22 = sext i8 %21 to i32
  %23 = call noundef ptr @strchr(ptr noundef @_ZN4absl13time_internal4cctz12_GLOBAL__N_17kDigitsE, i32 noundef %22) #15
  store ptr %23, ptr %6, align 8, !tbaa !14
  %24 = load ptr, ptr %6, align 8, !tbaa !14
  %25 = icmp ne ptr %24, null
  br i1 %25, label %26, label %34

26:                                               ; preds = %14
  %27 = load i32, ptr %5, align 4, !tbaa !17
  %28 = mul nsw i32 %27, 10
  %29 = load ptr, ptr %6, align 8, !tbaa !14
  %30 = ptrtoint ptr %29 to i64
  %31 = sub i64 %30, ptrtoint (ptr @_ZN4absl13time_internal4cctz12_GLOBAL__N_17kDigitsE to i64)
  %32 = trunc i64 %31 to i32
  %33 = add nsw i32 %28, %32
  store i32 %33, ptr %2, align 4
  store i32 1, ptr %7, align 4
  br label %35

34:                                               ; preds = %14
  store i32 0, ptr %7, align 4
  br label %35

35:                                               ; preds = %34, %26
  call void @llvm.lifetime.end.p0(i64 8, ptr %6) #13
  %36 = load i32, ptr %7, align 4
  switch i32 %36, label %38 [
    i32 0, label %37
  ]

37:                                               ; preds = %35
  store i32 0, ptr %7, align 4
  br label %38

38:                                               ; preds = %37, %35
  call void @llvm.lifetime.end.p0(i64 4, ptr %5) #13
  %39 = load i32, ptr %7, align 4
  switch i32 %39, label %42 [
    i32 0, label %40
  ]

40:                                               ; preds = %38
  br label %41

41:                                               ; preds = %40, %1
  store i32 0, ptr %7, align 4
  br label %42

42:                                               ; preds = %41, %38
  call void @llvm.lifetime.end.p0(i64 8, ptr %4) #13
  %43 = load i32, ptr %7, align 4
  switch i32 %43, label %47 [
    i32 0, label %44
    i32 1, label %45
  ]

44:                                               ; preds = %42
  store i32 -1, ptr %2, align 4
  br label %45

45:                                               ; preds = %44, %42
  %46 = load i32, ptr %2, align 4
  ret i32 %46

47:                                               ; preds = %42
  unreachable
}