; Function Attrs: mustprogress nofree nounwind willreturn memory(argmem: read) uwtable
define internal fastcc noundef i32 @_ZN4absl13time_internal4cctz12_GLOBAL__N_18Parse02dEPKc(ptr noundef readonly captures(none) %0) unnamed_addr #3 {
  %2 = load i8, ptr %0, align 1, !tbaa !13
  %3 = sext i8 %2 to i32
  %memchr = tail call ptr @memchr(ptr noundef nonnull dereferenceable(1) @_ZN4absl13time_internal4cctz12_GLOBAL__N_17kDigitsE, i32 %3, i64 11)
  %.not = icmp eq ptr %memchr, null
  br i1 %.not, label %select.unfold, label %4

4:                                                ; preds = %1
  %5 = getelementptr inbounds nuw i8, ptr %0, i64 1
  %6 = load i8, ptr %5, align 1, !tbaa !13
  %7 = sext i8 %6 to i32
  %memchr15 = tail call ptr @memchr(ptr noundef nonnull dereferenceable(1) @_ZN4absl13time_internal4cctz12_GLOBAL__N_17kDigitsE, i32 %7, i64 11)
  %.not16 = icmp eq ptr %memchr15, null
  %8 = ptrtoint ptr %memchr to i64
  %9 = trunc i64 %8 to i32
  %10 = sub i32 %9, ptrtoint (ptr @_ZN4absl13time_internal4cctz12_GLOBAL__N_17kDigitsE to i32)
  %11 = mul nsw i32 %10, 10
  %12 = ptrtoint ptr %memchr15 to i64
  %13 = trunc i64 %12 to i32
  %14 = add i32 %11, sub (i32 0, i32 ptrtoint (ptr @_ZN4absl13time_internal4cctz12_GLOBAL__N_17kDigitsE to i32))
  %15 = add i32 %14, %13
  %spec.select = select i1 %.not16, i32 -1, i32 %15
  br label %select.unfold

select.unfold:                                    ; preds = %4, %1
  %16 = phi i32 [ -1, %1 ], [ %spec.select, %4 ]
  ret i32 %16
}